target datalayout = "e-m:e-p270:32:32-p271:32:32-p272:64:64-i64:64-i128:128-f80:128-n8:16:32:64-S128"
target triple = "x86_64-pc-linux-gnu"

%struct.SDLTest_Md5Context = type { [2 x i32], [4 x i32], [64 x i8], [16 x i8] }

; Function Attrs: nounwind uwtable
define dso_local void @SDLTest_Md5Init(ptr noundef %0) #0 {
  %2 = alloca ptr, align 8
  store ptr %0, ptr %2, align 8
  %3 = load ptr, ptr %2, align 8
  %4 = icmp ne ptr %3, null
  br i1 %4, label %6, label %5

5:                                                ; preds = %1
  br label %25

6:                                                ; preds = %1
  %7 = load ptr, ptr %2, align 8
  %8 = getelementptr inbounds nuw %struct.SDLTest_Md5Context, ptr %7, i32 0, i32 0
  %9 = getelementptr inbounds [2 x i32], ptr %8, i64 0, i64 1
  store i32 0, ptr %9, align 4
  %10 = load ptr, ptr %2, align 8
  %11 = getelementptr inbounds nuw %struct.SDLTest_Md5Context, ptr %10, i32 0, i32 0
  %12 = getelementptr inbounds [2 x i32], ptr %11, i64 0, i64 0
  store i32 0, ptr %12, align 4
  %13 = load ptr, ptr %2, align 8
  %14 = getelementptr inbounds nuw %struct.SDLTest_Md5Context, ptr %13, i32 0, i32 1
  %15 = getelementptr inbounds [4 x i32], ptr %14, i64 0, i64 0
  store i32 1732584193, ptr %15, align 4
  %16 = load ptr, ptr %2, align 8
  %17 = getelementptr inbounds nuw %struct.SDLTest_Md5Context, ptr %16, i32 0, i32 1
  %18 = getelementptr inbounds [4 x i32], ptr %17, i64 0, i64 1
  store i32 -271733879, ptr %18, align 4
  %19 = load ptr, ptr %2, align 8
  %20 = getelementptr inbounds nuw %struct.SDLTest_Md5Context, ptr %19, i32 0, i32 1
  %21 = getelementptr inbounds [4 x i32], ptr %20, i64 0, i64 2
  store i32 -1732584194, ptr %21, align 4
  %22 = load ptr, ptr %2, align 8
  %23 = getelementptr inbounds nuw %struct.SDLTest_Md5Context, ptr %22, i32 0, i32 1
  %24 = getelementptr inbounds [4 x i32], ptr %23, i64 0, i64 3
  store i32 271733878, ptr %24, align 4
  br label %25

25:                                               ; preds = %6, %5
  ret void
}