; Function Attrs: mustprogress nofree norecurse nosync nounwind willreturn memory(argmem: write) uwtable
define dso_local void @SDLTest_Md5Init(ptr noundef writeonly captures(address_is_null) %0) local_unnamed_addr #0 {
  %.not = icmp eq ptr %0, null
  br i1 %.not, label %8, label %2

2:                                                ; preds = %1
  %3 = getelementptr inbounds nuw i8, ptr %0, i64 4
  store i32 0, ptr %3, align 4
  store i32 0, ptr %0, align 4
  %4 = getelementptr inbounds nuw i8, ptr %0, i64 8
  store i32 1732584193, ptr %4, align 4
  %5 = getelementptr inbounds nuw i8, ptr %0, i64 12
  store i32 -271733879, ptr %5, align 4
  %6 = getelementptr inbounds nuw i8, ptr %0, i64 16
  store i32 -1732584194, ptr %6, align 4
  %7 = getelementptr inbounds nuw i8, ptr %0, i64 20
  store i32 271733878, ptr %7, align 4
  br label %8

8:                                                ; preds = %1, %2
  ret void
}